target datalayout = "e-m:e-p270:32:32-p271:32:32-p272:64:64-i64:64-i128:128-f80:128-n8:16:32:64-S128"
target triple = "x86_64-pc-linux-gnu"

%struct._object = type { %union.anon, ptr }
%union.anon = type { i64 }
%struct.stringio = type { %struct._object, ptr, i64, i64, i64, i32, ptr, i8, i8, i8, i8, ptr, ptr, ptr, ptr, ptr, ptr }

@PyExc_ValueError = external global ptr, align 8
@.str.2 = private unnamed_addr constant [38 x i8] c"I/O operation on uninitialized object\00", align 1
@.str.3 = private unnamed_addr constant [29 x i8] c"I/O operation on closed file\00", align 1
@.str.9 = private unnamed_addr constant [9 x i8] c"readline\00", align 1

; Function Attrs: nounwind uwtable
define internal ptr @_stringio_readline(ptr noundef %0, i64 noundef %1) #0 {
  %3 = alloca ptr, align 8
  %4 = alloca ptr, align 8
  %5 = alloca i64, align 8
  %6 = alloca ptr, align 8
  %7 = alloca ptr, align 8
  %8 = alloca i32, align 4
  %9 = alloca i64, align 8
  %10 = alloca i64, align 8
  %11 = alloca i32, align 4
  store ptr %0, ptr %4, align 8, !tbaa !4
  store i64 %1, ptr %5, align 8, !tbaa !43
  call void @llvm.lifetime.start.p0(i64 8, ptr %6) #7
  call void @llvm.lifetime.start.p0(i64 8, ptr %7) #7
  call void @llvm.lifetime.start.p0(i64 4, ptr %8) #7
  call void @llvm.lifetime.start.p0(i64 8, ptr %9) #7
  call void @llvm.lifetime.start.p0(i64 8, ptr %10) #7
  %12 = load ptr, ptr %4, align 8, !tbaa !4
  %13 = getelementptr inbounds nuw %struct.stringio, ptr %12, i32 0, i32 2
  %14 = load i64, ptr %13, align 8, !tbaa !52
  %15 = load ptr, ptr %4, align 8, !tbaa !4
  %16 = getelementptr inbounds nuw %struct.stringio, ptr %15, i32 0, i32 3
  %17 = load i64, ptr %16, align 8, !tbaa !53
  %18 = icmp sge i64 %14, %17
  br i1 %18, label %19, label %21

19:                                               ; preds = %2
  %20 = call ptr @Py_GetConstant(i32 noundef 7)
  store ptr %20, ptr %3, align 8
  store i32 1, ptr %11, align 4
  br label %85

21:                                               ; preds = %2
  %22 = load ptr, ptr %4, align 8, !tbaa !4
  %23 = getelementptr inbounds nuw %struct.stringio, ptr %22, i32 0, i32 1
  %24 = load ptr, ptr %23, align 8, !tbaa !19
  %25 = load ptr, ptr %4, align 8, !tbaa !4
  %26 = getelementptr inbounds nuw %struct.stringio, ptr %25, i32 0, i32 2
  %27 = load i64, ptr %26, align 8, !tbaa !52
  %28 = getelementptr i32, ptr %24, i64 %27
  store ptr %28, ptr %6, align 8, !tbaa !54
  %29 = load i64, ptr %5, align 8, !tbaa !43
  %30 = icmp slt i64 %29, 0
  br i1 %30, label %41, label %31

31:                                               ; preds = %21
  %32 = load i64, ptr %5, align 8, !tbaa !43
  %33 = load ptr, ptr %4, align 8, !tbaa !4
  %34 = getelementptr inbounds nuw %struct.stringio, ptr %33, i32 0, i32 3
  %35 = load i64, ptr %34, align 8, !tbaa !53
  %36 = load ptr, ptr %4, align 8, !tbaa !4
  %37 = getelementptr inbounds nuw %struct.stringio, ptr %36, i32 0, i32 2
  %38 = load i64, ptr %37, align 8, !tbaa !52
  %39 = sub i64 %35, %38
  %40 = icmp sgt i64 %32, %39
  br i1 %40, label %41, label %49

41:                                               ; preds = %31, %21
  %42 = load ptr, ptr %4, align 8, !tbaa !4
  %43 = getelementptr inbounds nuw %struct.stringio, ptr %42, i32 0, i32 3
  %44 = load i64, ptr %43, align 8, !tbaa !53
  %45 = load ptr, ptr %4, align 8, !tbaa !4
  %46 = getelementptr inbounds nuw %struct.stringio, ptr %45, i32 0, i32 2
  %47 = load i64, ptr %46, align 8, !tbaa !52
  %48 = sub i64 %44, %47
  store i64 %48, ptr %5, align 8, !tbaa !43
  br label %49

49:                                               ; preds = %41, %31
  %50 = load ptr, ptr %6, align 8, !tbaa !54
  %51 = load i64, ptr %5, align 8, !tbaa !43
  %52 = getelementptr i32, ptr %50, i64 %51
  store ptr %52, ptr %7, align 8, !tbaa !54
  %53 = load ptr, ptr %7, align 8, !tbaa !54
  %54 = load i32, ptr %53, align 4, !tbaa !30
  store i32 %54, ptr %8, align 4, !tbaa !30
  %55 = load ptr, ptr %7, align 8, !tbaa !54
  store i32 0, ptr %55, align 4, !tbaa !30
  %56 = load ptr, ptr %4, align 8, !tbaa !4
  %57 = getelementptr inbounds nuw %struct.stringio, ptr %56, i32 0, i32 10
  %58 = load i8, ptr %57, align 1, !tbaa !55
  %59 = sext i8 %58 to i32
  %60 = load ptr, ptr %4, align 8, !tbaa !4
  %61 = getelementptr inbounds nuw %struct.stringio, ptr %60, i32 0, i32 9
  %62 = load i8, ptr %61, align 2, !tbaa !56
  %63 = sext i8 %62 to i32
  %64 = load ptr, ptr %4, align 8, !tbaa !4
  %65 = getelementptr inbounds nuw %struct.stringio, ptr %64, i32 0, i32 12
  %66 = load ptr, ptr %65, align 8, !tbaa !31
  %67 = load ptr, ptr %6, align 8, !tbaa !54
  %68 = load ptr, ptr %7, align 8, !tbaa !54
  %69 = call i64 @_PyIO_find_line_ending(i32 noundef %59, i32 noundef %63, ptr noundef %66, i32 noundef 4, ptr noundef %67, ptr noundef %68, ptr noundef %10)
  store i64 %69, ptr %9, align 8, !tbaa !43
  %70 = load i32, ptr %8, align 4, !tbaa !30
  %71 = load ptr, ptr %7, align 8, !tbaa !54
  store i32 %70, ptr %71, align 4, !tbaa !30
  %72 = load i64, ptr %9, align 8, !tbaa !43
  %73 = icmp slt i64 %72, 0
  br i1 %73, label %74, label %76

74:                                               ; preds = %49
  %75 = load i64, ptr %5, align 8, !tbaa !43
  store i64 %75, ptr %9, align 8, !tbaa !43
  br label %76

76:                                               ; preds = %74, %49
  %77 = load i64, ptr %9, align 8, !tbaa !43
  %78 = load ptr, ptr %4, align 8, !tbaa !4
  %79 = getelementptr inbounds nuw %struct.stringio, ptr %78, i32 0, i32 2
  %80 = load i64, ptr %79, align 8, !tbaa !52
  %81 = add i64 %80, %77
  store i64 %81, ptr %79, align 8, !tbaa !52
  %82 = load ptr, ptr %6, align 8, !tbaa !54
  %83 = load i64, ptr %9, align 8, !tbaa !43
  %84 = call ptr @PyUnicode_FromKindAndData(i32 noundef 4, ptr noundef %82, i64 noundef %83)
  store ptr %84, ptr %3, align 8
  store i32 1, ptr %11, align 4
  br label %85

85:                                               ; preds = %76, %19
  call void @llvm.lifetime.end.p0(i64 8, ptr %10) #7
  call void @llvm.lifetime.end.p0(i64 8, ptr %9) #7
  call void @llvm.lifetime.end.p0(i64 4, ptr %8) #7
  call void @llvm.lifetime.end.p0(i64 8, ptr %7) #7
  call void @llvm.lifetime.end.p0(i64 8, ptr %6) #7
  %86 = load ptr, ptr %3, align 8
  ret ptr %86
}

; Function Attrs: nounwind uwtable
define internal ptr @_io_StringIO_readline_impl(ptr noundef %0, i64 noundef %1) #0 {
  %3 = alloca ptr, align 8
  %4 = alloca ptr, align 8
  %5 = alloca i64, align 8
  store ptr %0, ptr %4, align 8, !tbaa !4
  store i64 %1, ptr %5, align 8, !tbaa !43
  %6 = load ptr, ptr %4, align 8, !tbaa !4
  %7 = getelementptr inbounds nuw %struct.stringio, ptr %6, i32 0, i32 7
  %8 = load i8, ptr %7, align 8, !tbaa !10
  %9 = sext i8 %8 to i32
  %10 = icmp sle i32 %9, 0
  br i1 %10, label %11, label %13

11:                                               ; preds = %2
  %12 = load ptr, ptr @PyExc_ValueError, align 8, !tbaa !37
  call void @PyErr_SetString(ptr noundef %12, ptr noundef @.str.2)
  store ptr null, ptr %3, align 8
  br label %29

13:                                               ; preds = %2
  %14 = load ptr, ptr %4, align 8, !tbaa !4
  %15 = getelementptr inbounds nuw %struct.stringio, ptr %14, i32 0, i32 8
  %16 = load i8, ptr %15, align 1, !tbaa !38
  %17 = icmp ne i8 %16, 0
  br i1 %17, label %18, label %20

18:                                               ; preds = %13
  %19 = load ptr, ptr @PyExc_ValueError, align 8, !tbaa !37
  call void @PyErr_SetString(ptr noundef %19, ptr noundef @.str.3)
  store ptr null, ptr %3, align 8
  br label %29

20:                                               ; preds = %13
  %21 = load ptr, ptr %4, align 8, !tbaa !4
  %22 = call i32 @realize(ptr noundef %21)
  %23 = icmp slt i32 %22, 0
  br i1 %23, label %24, label %25

24:                                               ; preds = %20
  store ptr null, ptr %3, align 8
  br label %29

25:                                               ; preds = %20
  %26 = load ptr, ptr %4, align 8, !tbaa !4
  %27 = load i64, ptr %5, align 8, !tbaa !43
  %28 = call ptr @_stringio_readline(ptr noundef %26, i64 noundef %27)
  store ptr %28, ptr %3, align 8
  br label %29

29:                                               ; preds = %25, %24, %18, %11
  %30 = load ptr, ptr %3, align 8
  ret ptr %30
}

; Function Attrs: nounwind uwtable
define internal ptr @_io_StringIO_readline(ptr noundef %0, ptr noundef %1, i64 noundef %2) #0 {
  %4 = alloca ptr, align 8
  %5 = alloca ptr, align 8
  %6 = alloca i64, align 8
  %7 = alloca ptr, align 8
  %8 = alloca i64, align 8
  store ptr %0, ptr %4, align 8, !tbaa !37
  store ptr %1, ptr %5, align 8, !tbaa !35
  store i64 %2, ptr %6, align 8, !tbaa !43
  call void @llvm.lifetime.start.p0(i64 8, ptr %7) #7
  store ptr null, ptr %7, align 8, !tbaa !37
  call void @llvm.lifetime.start.p0(i64 8, ptr %8) #7
  store i64 -1, ptr %8, align 8, !tbaa !43
  %9 = load i64, ptr %6, align 8, !tbaa !43
  %10 = icmp sle i64 0, %9
  br i1 %10, label %11, label %14

11:                                               ; preds = %3
  %12 = load i64, ptr %6, align 8, !tbaa !43
  %13 = icmp sle i64 %12, 1
  br i1 %13, label %19, label %14

14:                                               ; preds = %11, %3
  %15 = load i64, ptr %6, align 8, !tbaa !43
  %16 = call i32 @_PyArg_CheckPositional(ptr noundef @.str.9, i64 noundef %15, i64 noundef 0, i64 noundef 1)
  %17 = icmp ne i32 %16, 0
  br i1 %17, label %19, label %18

18:                                               ; preds = %14
  br label %35

19:                                               ; preds = %14, %11
  %20 = load i64, ptr %6, align 8, !tbaa !43
  %21 = icmp slt i64 %20, 1
  br i1 %21, label %22, label %23

22:                                               ; preds = %19
  br label %31

23:                                               ; preds = %19
  %24 = load ptr, ptr %5, align 8, !tbaa !35
  %25 = getelementptr ptr, ptr %24, i64 0
  %26 = load ptr, ptr %25, align 8, !tbaa !37
  %27 = call i32 @_Py_convert_optional_to_ssize_t(ptr noundef %26, ptr noundef %8)
  %28 = icmp ne i32 %27, 0
  br i1 %28, label %30, label %29

29:                                               ; preds = %23
  br label %35

30:                                               ; preds = %23
  br label %31

31:                                               ; preds = %30, %22
  %32 = load ptr, ptr %4, align 8, !tbaa !37
  %33 = load i64, ptr %8, align 8, !tbaa !43
  %34 = call ptr @_io_StringIO_readline_impl(ptr noundef %32, i64 noundef %33)
  store ptr %34, ptr %7, align 8, !tbaa !37
  br label %35

35:                                               ; preds = %31, %29, %18
  %36 = load ptr, ptr %7, align 8, !tbaa !37
  call void @llvm.lifetime.end.p0(i64 8, ptr %8) #7
  call void @llvm.lifetime.end.p0(i64 8, ptr %7) #7
  ret ptr %36
}