; Function Attrs: nounwind uwtable
define internal ptr @_io_StringIO_readline(ptr noundef captures(none) %0, ptr noundef readonly captures(none) %1, i64 noundef %2) #0 {
  %4 = alloca i64, align 8
  %5 = alloca i64, align 8
  call void @llvm.lifetime.start.p0(i64 8, ptr nonnull %5) #6
  store i64 -1, ptr %5, align 8, !tbaa !64
  %or.cond = icmp ult i64 %2, 2
  br i1 %or.cond, label %8, label %6

6:                                                ; preds = %3
  %7 = tail call i32 @_PyArg_CheckPositional(ptr noundef nonnull @.str.9, i64 noundef %2, i64 noundef 0, i64 noundef 1) #6
  %.not = icmp eq i32 %7, 0
  br i1 %.not, label %_io_StringIO_readline_impl.exit, label %8

8:                                                ; preds = %3, %6
  %9 = icmp slt i64 %2, 1
  br i1 %9, label %13, label %10

10:                                               ; preds = %8
  %11 = load ptr, ptr %1, align 8, !tbaa !37
  %12 = call i32 @_Py_convert_optional_to_ssize_t(ptr noundef %11, ptr noundef nonnull %5) #6
  %.not7 = icmp eq i32 %12, 0
  br i1 %.not7, label %_io_StringIO_readline_impl.exit, label %._crit_edge

._crit_edge:                                      ; preds = %10
  %.pre = load i64, ptr %5, align 8, !tbaa !64
  br label %13

13:                                               ; preds = %._crit_edge, %8
  %14 = phi i64 [ %.pre, %._crit_edge ], [ -1, %8 ]
  %15 = getelementptr inbounds nuw i8, ptr %0, i64 64
  %16 = load i8, ptr %15, align 8, !tbaa !14
  %17 = icmp slt i8 %16, 1
  br i1 %17, label %18, label %20

18:                                               ; preds = %13
  %19 = load ptr, ptr @PyExc_ValueError, align 8, !tbaa !37
  call void @PyErr_SetString(ptr noundef %19, ptr noundef nonnull @.str.2) #6
  br label %_io_StringIO_readline_impl.exit

20:                                               ; preds = %13
  %21 = getelementptr inbounds nuw i8, ptr %0, i64 65
  %22 = load i8, ptr %21, align 1, !tbaa !38
  %.not.i = icmp eq i8 %22, 0
  br i1 %.not.i, label %25, label %23

23:                                               ; preds = %20
  %24 = load ptr, ptr @PyExc_ValueError, align 8, !tbaa !37
  call void @PyErr_SetString(ptr noundef %24, ptr noundef nonnull @.str.3) #6
  br label %_io_StringIO_readline_impl.exit

25:                                               ; preds = %20
  %26 = call fastcc i32 @realize(ptr noundef nonnull %0)
  %27 = icmp slt i32 %26, 0
  br i1 %27, label %_io_StringIO_readline_impl.exit, label %28

28:                                               ; preds = %25
  call void @llvm.lifetime.start.p0(i64 8, ptr nonnull %4) #6
  %29 = getelementptr inbounds nuw i8, ptr %0, i64 24
  %30 = load i64, ptr %29, align 8, !tbaa !42
  %31 = getelementptr inbounds nuw i8, ptr %0, i64 32
  %32 = load i64, ptr %31, align 8, !tbaa !43
  %.not.i.i = icmp slt i64 %30, %32
  br i1 %.not.i.i, label %35, label %33

33:                                               ; preds = %28
  %34 = call ptr @Py_GetConstant(i32 noundef 7) #6
  br label %_stringio_readline.exit.i

35:                                               ; preds = %28
  %36 = getelementptr inbounds nuw i8, ptr %0, i64 16
  %37 = load ptr, ptr %36, align 8, !tbaa !21
  %38 = getelementptr i32, ptr %37, i64 %30
  %39 = icmp slt i64 %14, 0
  %40 = sub i64 %32, %30
  %41 = call i64 @llvm.smin.i64(i64 %14, i64 %40)
  %spec.select34.i.i = select i1 %39, i64 %40, i64 %41
  %42 = getelementptr i32, ptr %38, i64 %spec.select34.i.i
  %43 = load i32, ptr %42, align 4, !tbaa !44
  store i32 0, ptr %42, align 4, !tbaa !44
  %44 = getelementptr inbounds nuw i8, ptr %0, i64 67
  %45 = load i8, ptr %44, align 1, !tbaa !45
  %46 = sext i8 %45 to i32
  %47 = getelementptr inbounds nuw i8, ptr %0, i64 66
  %48 = load i8, ptr %47, align 2, !tbaa !46
  %49 = sext i8 %48 to i32
  %50 = getelementptr inbounds nuw i8, ptr %0, i64 80
  %51 = load ptr, ptr %50, align 8, !tbaa !33
  %52 = call i64 @_PyIO_find_line_ending(i32 noundef %46, i32 noundef %49, ptr noundef %51, i32 noundef 4, ptr noundef %38, ptr noundef nonnull %42, ptr noundef nonnull %4) #6
  store i32 %43, ptr %42, align 4, !tbaa !44
  %53 = icmp slt i64 %52, 0
  %spec.select.i.i = select i1 %53, i64 %spec.select34.i.i, i64 %52
  %54 = load i64, ptr %29, align 8, !tbaa !42
  %55 = add i64 %54, %spec.select.i.i
  store i64 %55, ptr %29, align 8, !tbaa !42
  %56 = call ptr @PyUnicode_FromKindAndData(i32 noundef 4, ptr noundef %38, i64 noundef %spec.select.i.i) #6
  br label %_stringio_readline.exit.i

_stringio_readline.exit.i:                        ; preds = %35, %33
  %.027.i.i = phi ptr [ %34, %33 ], [ %56, %35 ]
  call void @llvm.lifetime.end.p0(i64 8, ptr nonnull %4) #6
  br label %_io_StringIO_readline_impl.exit

_io_StringIO_readline_impl.exit:                  ; preds = %_stringio_readline.exit.i, %25, %23, %18, %10, %6
  %.0 = phi ptr [ null, %10 ], [ null, %6 ], [ null, %18 ], [ null, %23 ], [ %.027.i.i, %_stringio_readline.exit.i ], [ null, %25 ]
  call void @llvm.lifetime.end.p0(i64 8, ptr nonnull %5) #6
  ret ptr %.0
}